target datalayout = "e-m:e-p270:32:32-p271:32:32-p272:64:64-i64:64-i128:128-f80:128-n8:16:32:64-S128"
target triple = "x86_64-pc-linux-gnu"

@stderr = external global ptr, align 8
@.str = private unnamed_addr constant [24 x i8] c"lib/pathplan/%s:%d: %s\0A\00", align 1
@.str.1 = private unnamed_addr constant [119 x i8] c"generated/home/dtcxzyw/WorkSpace/Projects/compilers/llvm-opt-benchmark/bench/graphviz/graphviz/lib/pathplan/shortest.c\00", align 1
@ops = internal global ptr null, align 8
@opn = internal global i64 0, align 8
@.str.10 = private unnamed_addr constant [19 x i8] c"cannot realloc ops\00", align 1

; Function Attrs: nounwind uwtable
define internal i32 @growops(i64 noundef %0) #0 {
  %2 = alloca i32, align 4
  %3 = alloca i64, align 8
  %4 = alloca ptr, align 8
  %5 = alloca i32, align 4
  store i64 %0, ptr %3, align 8, !tbaa !19
  %6 = load i64, ptr %3, align 8, !tbaa !19
  %7 = load i64, ptr @opn, align 8, !tbaa !19
  %8 = icmp ule i64 %6, %7
  br i1 %8, label %9, label %10

9:                                                ; preds = %1
  store i32 0, ptr %2, align 4
  br label %24

10:                                               ; preds = %1
  call void @llvm.lifetime.start.p0(i64 8, ptr %4) #9
  %11 = load ptr, ptr @ops, align 8, !tbaa !8
  %12 = load i64, ptr %3, align 8, !tbaa !19
  %13 = mul i64 16, %12
  %14 = call ptr @realloc(ptr noundef %11, i64 noundef %13) #11
  store ptr %14, ptr %4, align 8, !tbaa !8
  %15 = load ptr, ptr %4, align 8, !tbaa !8
  %16 = icmp eq ptr %15, null
  br i1 %16, label %17, label %20

17:                                               ; preds = %10
  %18 = load ptr, ptr @stderr, align 8, !tbaa !15
  %19 = call i32 (ptr, ptr, ...) @fprintf(ptr noundef %18, ptr noundef @.str, ptr noundef @.str.1, i32 noundef 442, ptr noundef @.str.10) #9
  store i32 -1, ptr %2, align 4
  store i32 1, ptr %5, align 4
  br label %23

20:                                               ; preds = %10
  %21 = load ptr, ptr %4, align 8, !tbaa !8
  store ptr %21, ptr @ops, align 8, !tbaa !8
  %22 = load i64, ptr %3, align 8, !tbaa !19
  store i64 %22, ptr @opn, align 8, !tbaa !19
  store i32 0, ptr %2, align 4
  store i32 1, ptr %5, align 4
  br label %23

23:                                               ; preds = %20, %17
  call void @llvm.lifetime.end.p0(i64 8, ptr %4) #9
  br label %24

24:                                               ; preds = %23, %9
  %25 = load i32, ptr %2, align 4
  ret i32 %25
}