; Function Attrs: nounwind uwtable
define internal fastcc range(i32 -1, 1) i32 @growops(i64 noundef %0) unnamed_addr #0 {
  %2 = load i64, ptr @opn, align 8, !tbaa !62
  %.not = icmp ugt i64 %0, %2
  br i1 %.not, label %3, label %12

3:                                                ; preds = %1
  %4 = load ptr, ptr @ops, align 8, !tbaa !60
  %5 = shl i64 %0, 4
  %6 = tail call ptr @realloc(ptr noundef %4, i64 noundef %5) #15
  %7 = icmp eq ptr %6, null
  br i1 %7, label %8, label %11

8:                                                ; preds = %3
  %9 = load ptr, ptr @stderr, align 8, !tbaa !10
  %10 = tail call i32 (ptr, ptr, ...) @fprintf(ptr noundef %9, ptr noundef nonnull @.str, ptr noundef nonnull @.str.1, i32 noundef 442, ptr noundef nonnull @.str.10) #14
  br label %12

11:                                               ; preds = %3
  store ptr %6, ptr @ops, align 8, !tbaa !60
  store i64 %0, ptr @opn, align 8, !tbaa !62
  br label %12

12:                                               ; preds = %8, %11, %1
  %.0 = phi i32 [ 0, %1 ], [ -1, %8 ], [ 0, %11 ]
  ret i32 %.0
}